target datalayout = "e-m:e-p270:32:32-p271:32:32-p272:64:64-i64:64-i128:128-f80:128-n8:16:32:64-S128"
target triple = "x86_64-pc-linux-gnu"

%struct.listpackEntry = type { ptr, i32, i64 }

; Function Attrs: nounwind uwtable
define dso_local void @zsetReplyFromListpackEntry(ptr noundef %0, ptr noundef %1) #0 {
  %3 = alloca ptr, align 8
  %4 = alloca ptr, align 8
  store ptr %0, ptr %3, align 8, !tbaa !150
  store ptr %1, ptr %4, align 8, !tbaa !45
  %5 = load ptr, ptr %4, align 8, !tbaa !45
  %6 = getelementptr inbounds nuw %struct.listpackEntry, ptr %5, i32 0, i32 0
  %7 = load ptr, ptr %6, align 8, !tbaa !146
  %8 = icmp ne ptr %7, null
  br i1 %8, label %9, label %18

9:                                                ; preds = %2
  %10 = load ptr, ptr %3, align 8, !tbaa !150
  %11 = load ptr, ptr %4, align 8, !tbaa !45
  %12 = getelementptr inbounds nuw %struct.listpackEntry, ptr %11, i32 0, i32 0
  %13 = load ptr, ptr %12, align 8, !tbaa !146
  %14 = load ptr, ptr %4, align 8, !tbaa !45
  %15 = getelementptr inbounds nuw %struct.listpackEntry, ptr %14, i32 0, i32 1
  %16 = load i32, ptr %15, align 8, !tbaa !148
  %17 = zext i32 %16 to i64
  call void @addReplyBulkCBuffer(ptr noundef %10, ptr noundef %13, i64 noundef %17)
  br label %23

18:                                               ; preds = %2
  %19 = load ptr, ptr %3, align 8, !tbaa !150
  %20 = load ptr, ptr %4, align 8, !tbaa !45
  %21 = getelementptr inbounds nuw %struct.listpackEntry, ptr %20, i32 0, i32 2
  %22 = load i64, ptr %21, align 8, !tbaa !149
  call void @addReplyBulkLongLong(ptr noundef %19, i64 noundef %22)
  br label %23

23:                                               ; preds = %18, %9
  ret void
}